target datalayout = "e-m:e-p270:32:32-p271:32:32-p272:64:64-i64:64-i128:128-f80:128-n8:16:32:64-S128"
target triple = "x86_64-unknown-linux-gnu"

%struct.MACAddr = type { [6 x i8] }
%struct.of_dpa_flow = type { i32, i32, i32, i32, i64, %struct.of_dpa_flow_key, %struct.of_dpa_flow_key, %struct.of_dpa_flow_action, %struct.anon.13 }
%struct.of_dpa_flow_key = type { i32, i32, i32, %struct.anon, %struct.anon.0, %union.anon, i32 }
%struct.anon = type { i16, %struct.MACAddr, %struct.MACAddr, i16 }
%struct.anon.0 = type { i8, i8, i8, i8 }
%union.anon = type { %struct.anon.6 }
%struct.anon.6 = type { %struct.anon.7, i32, %struct.anon.9, %struct.anon.10 }
%struct.anon.7 = type { %struct.ipv6_addr, %struct.ipv6_addr }
%struct.ipv6_addr = type { %union.anon.8 }
%union.anon.8 = type { [4 x i32] }
%struct.anon.9 = type { i16, i16, i16 }
%struct.anon.10 = type { %struct.ipv6_addr, %struct.MACAddr, %struct.MACAddr }
%struct.of_dpa_flow_action = type { i32, %struct.anon.11, %struct.anon.12 }
%struct.anon.11 = type { i32, i32, i16 }
%struct.anon.12 = type { i16, i32, i8, i16 }
%struct.anon.13 = type { i64, i64, i64, i64, i64 }
%struct.of_dpa_flow_context = type { i32, i32, ptr, i32, %struct.eth_header, %struct.vlan_header, %struct.vlan_header, ptr, %struct.of_dpa_flow_pkt_fields, %struct.of_dpa_flow_action }
%struct.eth_header = type { [6 x i8], [6 x i8], i16 }
%struct.vlan_header = type { i16, i16 }
%struct.of_dpa_flow_pkt_fields = type { i32, ptr, ptr, ptr, ptr, ptr, ptr, ptr }

; Function Attrs: nounwind sspstrong uwtable
define internal void @of_dpa_bridging_action_write(ptr noundef %fc, ptr noundef %flow) #0 {
entry:
  %fc.addr = alloca ptr, align 8
  %flow.addr = alloca ptr, align 8
  store ptr %fc, ptr %fc.addr, align 8
  store ptr %flow, ptr %flow.addr, align 8
  %0 = load ptr, ptr %flow.addr, align 8
  %action = getelementptr inbounds %struct.of_dpa_flow, ptr %0, i32 0, i32 7
  %write = getelementptr inbounds %struct.of_dpa_flow_action, ptr %action, i32 0, i32 1
  %group_id = getelementptr inbounds %struct.anon.11, ptr %write, i32 0, i32 0
  %1 = load i32, ptr %group_id, align 4
  %cmp = icmp ne i32 %1, 0
  br i1 %cmp, label %if.then, label %if.end

if.then:                                          ; preds = %entry
  %2 = load ptr, ptr %flow.addr, align 8
  %action1 = getelementptr inbounds %struct.of_dpa_flow, ptr %2, i32 0, i32 7
  %write2 = getelementptr inbounds %struct.of_dpa_flow_action, ptr %action1, i32 0, i32 1
  %group_id3 = getelementptr inbounds %struct.anon.11, ptr %write2, i32 0, i32 0
  %3 = load i32, ptr %group_id3, align 4
  %4 = load ptr, ptr %fc.addr, align 8
  %action_set = getelementptr inbounds %struct.of_dpa_flow_context, ptr %4, i32 0, i32 9
  %write4 = getelementptr inbounds %struct.of_dpa_flow_action, ptr %action_set, i32 0, i32 1
  %group_id5 = getelementptr inbounds %struct.anon.11, ptr %write4, i32 0, i32 0
  store i32 %3, ptr %group_id5, align 4
  br label %if.end

if.end:                                           ; preds = %if.then, %entry
  %5 = load ptr, ptr %flow.addr, align 8
  %action6 = getelementptr inbounds %struct.of_dpa_flow, ptr %5, i32 0, i32 7
  %write7 = getelementptr inbounds %struct.of_dpa_flow_action, ptr %action6, i32 0, i32 1
  %tun_log_lport = getelementptr inbounds %struct.anon.11, ptr %write7, i32 0, i32 1
  %6 = load i32, ptr %tun_log_lport, align 4
  %7 = load ptr, ptr %fc.addr, align 8
  %action_set8 = getelementptr inbounds %struct.of_dpa_flow_context, ptr %7, i32 0, i32 9
  %write9 = getelementptr inbounds %struct.of_dpa_flow_action, ptr %action_set8, i32 0, i32 1
  %tun_log_lport10 = getelementptr inbounds %struct.anon.11, ptr %write9, i32 0, i32 1
  store i32 %6, ptr %tun_log_lport10, align 4
  ret void
}